target datalayout = "e-m:e-p270:32:32-p271:32:32-p272:64:64-i64:64-i128:128-f80:128-n8:16:32:64-S128"
target triple = "x86_64-pc-linux-gnu"

@.str.69 = private unnamed_addr constant [8 x i8] c"\00KMGTP?\00", align 1
@.str.70 = private unnamed_addr constant [2 x i8] c"0\00", align 1
@.str.71 = private unnamed_addr constant [6 x i8] c"%lu%c\00", align 1
@.str.72 = private unnamed_addr constant [7 x i8] c"%.2f%c\00", align 1

; Function Attrs: nounwind uwtable
define dso_local void @convert_num_unit2(double noundef %0, ptr noundef %1, i32 noundef %2, i32 noundef %3, i32 noundef %4, i32 noundef %5, i32 noundef %6) #0 {
  %8 = alloca double, align 8
  %9 = alloca ptr, align 8
  %10 = alloca i32, align 4
  %11 = alloca i32, align 4
  %12 = alloca i32, align 4
  %13 = alloca i32, align 4
  %14 = alloca i32, align 4
  %15 = alloca ptr, align 8
  %16 = alloca i64, align 8
  %17 = alloca i32, align 4
  store double %0, ptr %8, align 8
  store ptr %1, ptr %9, align 8
  store i32 %2, ptr %10, align 4
  store i32 %3, ptr %11, align 4
  store i32 %4, ptr %12, align 4
  store i32 %5, ptr %13, align 4
  store i32 %6, ptr %14, align 4
  call void @llvm.lifetime.start.p0(i64 8, ptr %15) #12
  store ptr @.str.69, ptr %15, align 8
  call void @llvm.lifetime.start.p0(i64 8, ptr %16) #12
  %18 = load double, ptr %8, align 8
  %19 = fptosi double %18 to i64
  %20 = icmp eq i64 %19, 0
  br i1 %20, label %21, label %26

21:                                               ; preds = %7
  %22 = load ptr, ptr %9, align 8
  %23 = load i32, ptr %10, align 4
  %24 = sext i32 %23 to i64
  %25 = call i32 (ptr, i64, ptr, ...) @snprintf(ptr noundef %22, i64 noundef %24, ptr noundef @.str.70) #12
  store i32 1, ptr %17, align 4
  br label %159

26:                                               ; preds = %7
  %27 = load i32, ptr %12, align 4
  %28 = icmp ne i32 %27, -2
  br i1 %28, label %29, label %65

29:                                               ; preds = %26
  %30 = load i32, ptr %12, align 4
  %31 = load i32, ptr %11, align 4
  %32 = icmp slt i32 %30, %31
  br i1 %32, label %33, label %46

33:                                               ; preds = %29
  br label %34

34:                                               ; preds = %38, %33
  %35 = load i32, ptr %12, align 4
  %36 = load i32, ptr %11, align 4
  %37 = icmp slt i32 %35, %36
  br i1 %37, label %38, label %45

38:                                               ; preds = %34
  %39 = load i32, ptr %13, align 4
  %40 = sitofp i32 %39 to double
  %41 = load double, ptr %8, align 8
  %42 = fmul double %41, %40
  store double %42, ptr %8, align 8
  %43 = load i32, ptr %11, align 4
  %44 = add nsw i32 %43, -1
  store i32 %44, ptr %11, align 4
  br label %34, !llvm.loop !8

45:                                               ; preds = %34
  br label %64

46:                                               ; preds = %29
  %47 = load i32, ptr %12, align 4
  %48 = load i32, ptr %11, align 4
  %49 = icmp sgt i32 %47, %48
  br i1 %49, label %50, label %63

50:                                               ; preds = %46
  br label %51

51:                                               ; preds = %55, %50
  %52 = load i32, ptr %12, align 4
  %53 = load i32, ptr %11, align 4
  %54 = icmp sgt i32 %52, %53
  br i1 %54, label %55, label %62

55:                                               ; preds = %51
  %56 = load i32, ptr %13, align 4
  %57 = sitofp i32 %56 to double
  %58 = load double, ptr %8, align 8
  %59 = fdiv double %58, %57
  store double %59, ptr %8, align 8
  %60 = load i32, ptr %11, align 4
  %61 = add nsw i32 %60, 1
  store i32 %61, ptr %11, align 4
  br label %51, !llvm.loop !11

62:                                               ; preds = %51
  br label %63

63:                                               ; preds = %62, %46
  br label %64

64:                                               ; preds = %63, %45
  br label %120

65:                                               ; preds = %26
  %66 = load i32, ptr %14, align 4
  %67 = and i32 %66, 4
  %68 = icmp ne i32 %67, 0
  br i1 %68, label %69, label %70

69:                                               ; preds = %65
  store i32 0, ptr %11, align 4
  br label %119

70:                                               ; preds = %65
  %71 = load i32, ptr %14, align 4
  %72 = and i32 %71, 2
  %73 = icmp ne i32 %72, 0
  br i1 %73, label %74, label %75

74:                                               ; preds = %70
  br label %118

75:                                               ; preds = %70
  %76 = load i32, ptr %14, align 4
  %77 = and i32 %76, 1
  %78 = icmp ne i32 %77, 0
  br i1 %78, label %79, label %103

79:                                               ; preds = %75
  br label %80

80:                                               ; preds = %95, %79
  %81 = load double, ptr %8, align 8
  %82 = load i32, ptr %13, align 4
  %83 = sitofp i32 %82 to double
  %84 = fcmp oge double %81, %83
  br i1 %84, label %85, label %93

85:                                               ; preds = %80
  %86 = load double, ptr %8, align 8
  %87 = fptoui double %86 to i64
  %88 = load i32, ptr %13, align 4
  %89 = sdiv i32 %88, 2
  %90 = sext i32 %89 to i64
  %91 = urem i64 %87, %90
  %92 = icmp eq i64 %91, 0
  br label %93

93:                                               ; preds = %85, %80
  %94 = phi i1 [ false, %80 ], [ %92, %85 ]
  br i1 %94, label %95, label %102

95:                                               ; preds = %93
  %96 = load i32, ptr %13, align 4
  %97 = sitofp i32 %96 to double
  %98 = load double, ptr %8, align 8
  %99 = fdiv double %98, %97
  store double %99, ptr %8, align 8
  %100 = load i32, ptr %11, align 4
  %101 = add nsw i32 %100, 1
  store i32 %101, ptr %11, align 4
  br label %80, !llvm.loop !12

102:                                              ; preds = %93
  br label %117

103:                                              ; preds = %75
  br label %104

104:                                              ; preds = %109, %103
  %105 = load double, ptr %8, align 8
  %106 = load i32, ptr %13, align 4
  %107 = sitofp i32 %106 to double
  %108 = fcmp oge double %105, %107
  br i1 %108, label %109, label %116

109:                                              ; preds = %104
  %110 = load i32, ptr %13, align 4
  %111 = sitofp i32 %110 to double
  %112 = load double, ptr %8, align 8
  %113 = fdiv double %112, %111
  store double %113, ptr %8, align 8
  %114 = load i32, ptr %11, align 4
  %115 = add nsw i32 %114, 1
  store i32 %115, ptr %11, align 4
  br label %104, !llvm.loop !13

116:                                              ; preds = %104
  br label %117

117:                                              ; preds = %116, %102
  br label %118

118:                                              ; preds = %117, %74
  br label %119

119:                                              ; preds = %118, %69
  br label %120

120:                                              ; preds = %119, %64
  %121 = load i32, ptr %11, align 4
  %122 = icmp slt i32 %121, 0
  br i1 %122, label %126, label %123

123:                                              ; preds = %120
  %124 = load i32, ptr %11, align 4
  %125 = icmp sgt i32 %124, 5
  br i1 %125, label %126, label %127

126:                                              ; preds = %123, %120
  store i32 6, ptr %11, align 4
  br label %127

127:                                              ; preds = %126, %123
  %128 = load double, ptr %8, align 8
  %129 = fptoui double %128 to i64
  store i64 %129, ptr %16, align 8
  %130 = load i64, ptr %16, align 8
  %131 = uitofp i64 %130 to double
  %132 = load double, ptr %8, align 8
  %133 = fcmp oeq double %131, %132
  br i1 %133, label %134, label %146

134:                                              ; preds = %127
  %135 = load ptr, ptr %9, align 8
  %136 = load i32, ptr %10, align 4
  %137 = sext i32 %136 to i64
  %138 = load i64, ptr %16, align 8
  %139 = load ptr, ptr %15, align 8
  %140 = load i32, ptr %11, align 4
  %141 = sext i32 %140 to i64
  %142 = getelementptr inbounds i8, ptr %139, i64 %141
  %143 = load i8, ptr %142, align 1
  %144 = sext i8 %143 to i32
  %145 = call i32 (ptr, i64, ptr, ...) @snprintf(ptr noundef %135, i64 noundef %137, ptr noundef @.str.71, i64 noundef %138, i32 noundef %144) #12
  br label %158

146:                                              ; preds = %127
  %147 = load ptr, ptr %9, align 8
  %148 = load i32, ptr %10, align 4
  %149 = sext i32 %148 to i64
  %150 = load double, ptr %8, align 8
  %151 = load ptr, ptr %15, align 8
  %152 = load i32, ptr %11, align 4
  %153 = sext i32 %152 to i64
  %154 = getelementptr inbounds i8, ptr %151, i64 %153
  %155 = load i8, ptr %154, align 1
  %156 = sext i8 %155 to i32
  %157 = call i32 (ptr, i64, ptr, ...) @snprintf(ptr noundef %147, i64 noundef %149, ptr noundef @.str.72, double noundef %150, i32 noundef %156) #12
  br label %158

158:                                              ; preds = %146, %134
  store i32 0, ptr %17, align 4
  br label %159

159:                                              ; preds = %158, %21
  call void @llvm.lifetime.end.p0(i64 8, ptr %16) #12
  call void @llvm.lifetime.end.p0(i64 8, ptr %15) #12
  %160 = load i32, ptr %17, align 4
  switch i32 %160, label %162 [
    i32 0, label %161
    i32 1, label %161
  ]

161:                                              ; preds = %159, %159
  ret void

162:                                              ; preds = %159
  unreachable
}