; Function Attrs: nofree nounwind uwtable
define dso_local void @convert_num_unit2(double noundef %0, ptr noundef writeonly captures(none) %1, i32 noundef %2, i32 noundef %3, i32 noundef %4, i32 noundef %5, i32 noundef %6) #0 {
  %8 = fptosi double %0 to i64
  %9 = icmp eq i64 %8, 0
  br i1 %9, label %10, label %13

10:                                               ; preds = %7
  %11 = sext i32 %2 to i64
  %12 = tail call i32 (ptr, i64, ptr, ...) @snprintf(ptr noundef %1, i64 noundef %11, ptr noundef nonnull @.str.70) #19
  br label %60

13:                                               ; preds = %7
  %.not = icmp eq i32 %4, -2
  br i1 %.not, label %27, label %14

14:                                               ; preds = %13
  %15 = icmp slt i32 %4, %3
  br i1 %15, label %.preheader63, label %21

.preheader63:                                     ; preds = %14
  %16 = sitofp i32 %5 to double
  br label %17

17:                                               ; preds = %.preheader63, %17
  %.070 = phi double [ %0, %.preheader63 ], [ %18, %17 ]
  %.04869 = phi i32 [ %3, %.preheader63 ], [ %19, %17 ]
  %18 = fmul double %.070, %16
  %19 = add nsw i32 %.04869, -1
  %20 = icmp slt i32 %4, %19
  br i1 %20, label %17, label %.critedge, !llvm.loop !8

21:                                               ; preds = %14
  %22 = icmp sgt i32 %4, %3
  br i1 %22, label %.preheader65, label %.critedge

.preheader65:                                     ; preds = %21
  %23 = sitofp i32 %5 to double
  br label %24

24:                                               ; preds = %.preheader65, %24
  %.168 = phi double [ %0, %.preheader65 ], [ %25, %24 ]
  %.14967 = phi i32 [ %3, %.preheader65 ], [ %26, %24 ]
  %25 = fdiv double %.168, %23
  %26 = add nsw i32 %.14967, 1
  %exitcond.not = icmp eq i32 %26, %4
  br i1 %exitcond.not, label %.critedge, label %24, !llvm.loop !11

27:                                               ; preds = %13
  %28 = and i32 %6, 4
  %.not58 = icmp eq i32 %28, 0
  br i1 %.not58, label %29, label %.critedge

29:                                               ; preds = %27
  %30 = and i32 %6, 2
  %.not59 = icmp eq i32 %30, 0
  br i1 %.not59, label %31, label %.critedge

31:                                               ; preds = %29
  %32 = and i32 %6, 1
  %.not60 = icmp eq i32 %32, 0
  %33 = sitofp i32 %5 to double
  %34 = fcmp ult double %0, %33
  br i1 %.not60, label %.preheader, label %.preheader61

.preheader61:                                     ; preds = %31
  br i1 %34, label %.critedge, label %.lr.ph

.lr.ph:                                           ; preds = %.preheader61
  %35 = sdiv i32 %5, 2
  %36 = sext i32 %35 to i64
  br label %37

.preheader:                                       ; preds = %31
  br i1 %34, label %.critedge, label %.lr.ph79

37:                                               ; preds = %.lr.ph, %41
  %.372 = phi double [ %0, %.lr.ph ], [ %42, %41 ]
  %.35171 = phi i32 [ %3, %.lr.ph ], [ %43, %41 ]
  %38 = fptoui double %.372 to i64
  %39 = urem i64 %38, %36
  %40 = icmp eq i64 %39, 0
  br i1 %40, label %41, label %.critedge

41:                                               ; preds = %37
  %42 = fdiv double %.372, %33
  %43 = add nsw i32 %.35171, 1
  %44 = fcmp ult double %42, %33
  br i1 %44, label %.critedge, label %37, !llvm.loop !12

.lr.ph79:                                         ; preds = %.preheader, %.lr.ph79
  %.478 = phi double [ %45, %.lr.ph79 ], [ %0, %.preheader ]
  %.45277 = phi i32 [ %46, %.lr.ph79 ], [ %3, %.preheader ]
  %45 = fdiv double %.478, %33
  %46 = add nsw i32 %.45277, 1
  %47 = fcmp ult double %45, %33
  br i1 %47, label %.critedge, label %.lr.ph79, !llvm.loop !13

.critedge:                                        ; preds = %24, %17, %37, %41, %.lr.ph79, %.preheader61, %.preheader, %27, %29, %21
  %.250 = phi i32 [ %3, %21 ], [ %3, %29 ], [ 0, %27 ], [ %3, %.preheader ], [ %3, %.preheader61 ], [ %46, %.lr.ph79 ], [ %.35171, %37 ], [ %43, %41 ], [ %4, %17 ], [ %4, %24 ]
  %.2 = phi double [ %0, %21 ], [ %0, %29 ], [ %0, %27 ], [ %0, %.preheader ], [ %0, %.preheader61 ], [ %45, %.lr.ph79 ], [ %.372, %37 ], [ %42, %41 ], [ %18, %17 ], [ %25, %24 ]
  %spec.store.select = tail call i32 @llvm.umin.i32(i32 %.250, i32 6)
  %48 = fptoui double %.2 to i64
  %49 = uitofp i64 %48 to double
  %50 = fcmp oeq double %.2, %49
  %51 = sext i32 %2 to i64
  %52 = zext nneg i32 %spec.store.select to i64
  %53 = getelementptr inbounds nuw i8, ptr @.str.69, i64 %52
  %54 = load i8, ptr %53, align 1
  %55 = sext i8 %54 to i32
  br i1 %50, label %56, label %58

56:                                               ; preds = %.critedge
  %57 = tail call i32 (ptr, i64, ptr, ...) @snprintf(ptr noundef %1, i64 noundef %51, ptr noundef nonnull @.str.71, i64 noundef %48, i32 noundef %55) #19
  br label %60

58:                                               ; preds = %.critedge
  %59 = tail call i32 (ptr, i64, ptr, ...) @snprintf(ptr noundef %1, i64 noundef %51, ptr noundef nonnull @.str.72, double noundef %.2, i32 noundef %55) #19
  br label %60

60:                                               ; preds = %56, %58, %10
  ret void
}